target datalayout = "e-m:e-p270:32:32-p271:32:32-p272:64:64-i64:64-i128:128-f80:128-n8:16:32:64-S128"
target triple = "x86_64-pc-linux-gnu"

%struct._SPI_plan = type { i32, i8, i8, ptr, ptr, i32, i32, i32, ptr, ptr, ptr }
%struct.ForEachState = type { ptr, i32 }
%struct.List = type { i32, i32, i32, ptr, [0 x %union.ListCell] }
%union.ListCell = type { ptr }

; Function Attrs: nounwind uwtable
define dso_local i32 @SPI_freeplan(ptr noundef %0) #0 {
  %2 = alloca i32, align 4
  %3 = alloca ptr, align 8
  %4 = alloca ptr, align 8
  %5 = alloca i32, align 4
  %6 = alloca %struct.ForEachState, align 8
  %7 = alloca ptr, align 8
  store ptr %0, ptr %3, align 8
  call void @llvm.lifetime.start.p0(i64 8, ptr %4) #9
  %8 = load ptr, ptr %3, align 8
  %9 = icmp eq ptr %8, null
  br i1 %9, label %15, label %10

10:                                               ; preds = %1
  %11 = load ptr, ptr %3, align 8
  %12 = getelementptr inbounds nuw %struct._SPI_plan, ptr %11, i32 0, i32 0
  %13 = load i32, ptr %12, align 8
  %14 = icmp ne i32 %13, 569278163
  br i1 %14, label %15, label %16

15:                                               ; preds = %10, %1
  store i32 -6, ptr %2, align 4
  store i32 1, ptr %5, align 4
  br label %61

16:                                               ; preds = %10
  call void @llvm.lifetime.start.p0(i64 16, ptr %6) #9
  %17 = getelementptr inbounds nuw %struct.ForEachState, ptr %6, i32 0, i32 0
  %18 = load ptr, ptr %3, align 8
  %19 = getelementptr inbounds nuw %struct._SPI_plan, ptr %18, i32 0, i32 3
  %20 = load ptr, ptr %19, align 8
  store ptr %20, ptr %17, align 8
  %21 = getelementptr inbounds nuw %struct.ForEachState, ptr %6, i32 0, i32 1
  store i32 0, ptr %21, align 8
  %22 = getelementptr i8, ptr %6, i64 12
  call void @llvm.memset.p0.i64(ptr align 4 %22, i8 0, i64 4, i1 false)
  br label %23

23:                                               ; preds = %53, %16
  %24 = getelementptr inbounds nuw %struct.ForEachState, ptr %6, i32 0, i32 0
  %25 = load ptr, ptr %24, align 8
  %26 = icmp ne ptr %25, null
  br i1 %26, label %27, label %44

27:                                               ; preds = %23
  %28 = getelementptr inbounds nuw %struct.ForEachState, ptr %6, i32 0, i32 1
  %29 = load i32, ptr %28, align 8
  %30 = getelementptr inbounds nuw %struct.ForEachState, ptr %6, i32 0, i32 0
  %31 = load ptr, ptr %30, align 8
  %32 = getelementptr inbounds nuw %struct.List, ptr %31, i32 0, i32 1
  %33 = load i32, ptr %32, align 4
  %34 = icmp slt i32 %29, %33
  br i1 %34, label %35, label %44

35:                                               ; preds = %27
  %36 = getelementptr inbounds nuw %struct.ForEachState, ptr %6, i32 0, i32 0
  %37 = load ptr, ptr %36, align 8
  %38 = getelementptr inbounds nuw %struct.List, ptr %37, i32 0, i32 3
  %39 = load ptr, ptr %38, align 8
  %40 = getelementptr inbounds nuw %struct.ForEachState, ptr %6, i32 0, i32 1
  %41 = load i32, ptr %40, align 8
  %42 = sext i32 %41 to i64
  %43 = getelementptr inbounds %union.ListCell, ptr %39, i64 %42
  store ptr %43, ptr %4, align 8
  br label %45

44:                                               ; preds = %27, %23
  store ptr null, ptr %4, align 8
  br label %45

45:                                               ; preds = %44, %35
  %46 = phi i32 [ 1, %35 ], [ 0, %44 ]
  %47 = icmp ne i32 %46, 0
  br i1 %47, label %49, label %48

48:                                               ; preds = %45
  store i32 2, ptr %5, align 4
  call void @llvm.lifetime.end.p0(i64 16, ptr %6) #9
  br label %57

49:                                               ; preds = %45
  call void @llvm.lifetime.start.p0(i64 8, ptr %7) #9
  %50 = load ptr, ptr %4, align 8
  %51 = load ptr, ptr %50, align 8
  store ptr %51, ptr %7, align 8
  %52 = load ptr, ptr %7, align 8
  call void @DropCachedPlan(ptr noundef %52)
  call void @llvm.lifetime.end.p0(i64 8, ptr %7) #9
  br label %53

53:                                               ; preds = %49
  %54 = getelementptr inbounds nuw %struct.ForEachState, ptr %6, i32 0, i32 1
  %55 = load i32, ptr %54, align 8
  %56 = add i32 %55, 1
  store i32 %56, ptr %54, align 8
  br label %23, !llvm.loop !19

57:                                               ; preds = %48
  %58 = load ptr, ptr %3, align 8
  %59 = getelementptr inbounds nuw %struct._SPI_plan, ptr %58, i32 0, i32 4
  %60 = load ptr, ptr %59, align 8
  call void @MemoryContextDelete(ptr noundef %60)
  store i32 0, ptr %2, align 4
  store i32 1, ptr %5, align 4
  br label %61

61:                                               ; preds = %57, %15
  call void @llvm.lifetime.end.p0(i64 8, ptr %4) #9
  %62 = load i32, ptr %2, align 4
  ret i32 %62
}