; Function Attrs: nounwind uwtable
define dso_local range(i32 -6, 1) i32 @SPI_freeplan(ptr noundef readonly captures(address_is_null) %0) local_unnamed_addr #0 {
  %2 = icmp eq ptr %0, null
  br i1 %2, label %20, label %3

3:                                                ; preds = %1
  %4 = load i32, ptr %0, align 8
  %.not = icmp eq i32 %4, 569278163
  br i1 %.not, label %5, label %20

5:                                                ; preds = %3
  %6 = getelementptr inbounds nuw i8, ptr %0, i64 8
  %7 = load ptr, ptr %6, align 8
  %8 = getelementptr inbounds nuw i8, ptr %7, i64 4
  %.not13 = icmp eq ptr %7, null
  br i1 %.not13, label %._crit_edge, label %.lr.ph

.lr.ph:                                           ; preds = %5
  %9 = getelementptr inbounds nuw i8, ptr %7, i64 16
  %10 = load i32, ptr %8, align 4
  %11 = icmp sgt i32 %10, 0
  br i1 %11, label %.lr.ph20, label %._crit_edge

._crit_edge:                                      ; preds = %.lr.ph20, %.lr.ph, %5
  %12 = getelementptr inbounds nuw i8, ptr %0, i64 16
  %13 = load ptr, ptr %12, align 8
  tail call void @MemoryContextDelete(ptr noundef %13) #15
  br label %20

.lr.ph20:                                         ; preds = %.lr.ph, %.lr.ph20
  %indvars.iv = phi i64 [ %indvars.iv.next, %.lr.ph20 ], [ 0, %.lr.ph ]
  %14 = load ptr, ptr %9, align 8
  %15 = getelementptr inbounds nuw %union.ListCell, ptr %14, i64 %indvars.iv
  %16 = load ptr, ptr %15, align 8
  tail call void @DropCachedPlan(ptr noundef %16) #15
  %indvars.iv.next = add nuw nsw i64 %indvars.iv, 1
  %17 = load i32, ptr %8, align 4
  %18 = sext i32 %17 to i64
  %19 = icmp slt i64 %indvars.iv.next, %18
  br i1 %19, label %.lr.ph20, label %._crit_edge

20:                                               ; preds = %1, %3, %._crit_edge
  %.0 = phi i32 [ 0, %._crit_edge ], [ -6, %3 ], [ -6, %1 ]
  ret i32 %.0
}